target datalayout = "e-m:e-p270:32:32-p271:32:32-p272:64:64-i64:64-i128:128-f80:128-n8:16:32:64-S128"
target triple = "x86_64-pc-linux-gnu"

; Function Attrs: nounwind uwtable
define internal void @hor_32x32_c(ptr noundef %0, i64 noundef %1, ptr noundef %2, ptr noundef %3) #1 {
  %5 = alloca ptr, align 8
  %6 = alloca i64, align 8
  %7 = alloca ptr, align 8
  %8 = alloca ptr, align 8
  %9 = alloca ptr, align 8
  %10 = alloca ptr, align 8
  %11 = alloca i32, align 4
  %12 = alloca i64, align 8
  store ptr %0, ptr %5, align 8, !tbaa !10
  store i64 %1, ptr %6, align 8, !tbaa !12
  store ptr %2, ptr %7, align 8, !tbaa !10
  store ptr %3, ptr %8, align 8, !tbaa !10
  call void @llvm.lifetime.start.p0(i64 8, ptr %9) #9
  %13 = load ptr, ptr %5, align 8, !tbaa !10
  store ptr %13, ptr %9, align 8, !tbaa !14
  call void @llvm.lifetime.start.p0(i64 8, ptr %10) #9
  %14 = load ptr, ptr %7, align 8, !tbaa !10
  store ptr %14, ptr %10, align 8, !tbaa !14
  call void @llvm.lifetime.start.p0(i64 4, ptr %11) #9
  %15 = load i64, ptr %6, align 8, !tbaa !12
  %16 = udiv i64 %15, 2
  store i64 %16, ptr %6, align 8, !tbaa !12
  store i32 0, ptr %11, align 4, !tbaa !19
  br label %17

17:                                               ; preds = %56, %4
  %18 = load i32, ptr %11, align 4, !tbaa !19
  %19 = icmp slt i32 %18, 32
  br i1 %19, label %20, label %59

20:                                               ; preds = %17
  call void @llvm.lifetime.start.p0(i64 8, ptr %12) #9
  %21 = load ptr, ptr %10, align 8, !tbaa !14
  %22 = load i32, ptr %11, align 4, !tbaa !19
  %23 = sub nsw i32 31, %22
  %24 = sext i32 %23 to i64
  %25 = getelementptr inbounds i16, ptr %21, i64 %24
  %26 = load i16, ptr %25, align 2, !tbaa !17
  %27 = zext i16 %26 to i64
  %28 = mul i64 %27, 281479271743489
  store i64 %28, ptr %12, align 8, !tbaa !12
  %29 = load i64, ptr %12, align 8, !tbaa !12
  %30 = load ptr, ptr %9, align 8, !tbaa !14
  %31 = getelementptr inbounds i16, ptr %30, i64 0
  store i64 %29, ptr %31, align 8, !tbaa !16
  %32 = load i64, ptr %12, align 8, !tbaa !12
  %33 = load ptr, ptr %9, align 8, !tbaa !14
  %34 = getelementptr inbounds i16, ptr %33, i64 4
  store i64 %32, ptr %34, align 8, !tbaa !16
  %35 = load i64, ptr %12, align 8, !tbaa !12
  %36 = load ptr, ptr %9, align 8, !tbaa !14
  %37 = getelementptr inbounds i16, ptr %36, i64 8
  store i64 %35, ptr %37, align 8, !tbaa !16
  %38 = load i64, ptr %12, align 8, !tbaa !12
  %39 = load ptr, ptr %9, align 8, !tbaa !14
  %40 = getelementptr inbounds i16, ptr %39, i64 12
  store i64 %38, ptr %40, align 8, !tbaa !16
  %41 = load i64, ptr %12, align 8, !tbaa !12
  %42 = load ptr, ptr %9, align 8, !tbaa !14
  %43 = getelementptr inbounds i16, ptr %42, i64 16
  store i64 %41, ptr %43, align 8, !tbaa !16
  %44 = load i64, ptr %12, align 8, !tbaa !12
  %45 = load ptr, ptr %9, align 8, !tbaa !14
  %46 = getelementptr inbounds i16, ptr %45, i64 20
  store i64 %44, ptr %46, align 8, !tbaa !16
  %47 = load i64, ptr %12, align 8, !tbaa !12
  %48 = load ptr, ptr %9, align 8, !tbaa !14
  %49 = getelementptr inbounds i16, ptr %48, i64 24
  store i64 %47, ptr %49, align 8, !tbaa !16
  %50 = load i64, ptr %12, align 8, !tbaa !12
  %51 = load ptr, ptr %9, align 8, !tbaa !14
  %52 = getelementptr inbounds i16, ptr %51, i64 28
  store i64 %50, ptr %52, align 8, !tbaa !16
  %53 = load i64, ptr %6, align 8, !tbaa !12
  %54 = load ptr, ptr %9, align 8, !tbaa !14
  %55 = getelementptr inbounds i16, ptr %54, i64 %53
  store ptr %55, ptr %9, align 8, !tbaa !14
  call void @llvm.lifetime.end.p0(i64 8, ptr %12) #9
  br label %56

56:                                               ; preds = %20
  %57 = load i32, ptr %11, align 4, !tbaa !19
  %58 = add nsw i32 %57, 1
  store i32 %58, ptr %11, align 4, !tbaa !19
  br label %17, !llvm.loop !70

59:                                               ; preds = %17
  call void @llvm.lifetime.end.p0(i64 4, ptr %11) #9
  call void @llvm.lifetime.end.p0(i64 8, ptr %10) #9
  call void @llvm.lifetime.end.p0(i64 8, ptr %9) #9
  ret void
}