; Function Attrs: nofree norecurse nosync nounwind memory(argmem: readwrite) uwtable
define internal void @hor_32x32_c(ptr noundef writeonly captures(none) %0, i64 noundef %1, ptr noundef readonly captures(none) %2, ptr readnone captures(none) %3) #2 {
  %5 = lshr i64 %1, 1
  br label %6

6:                                                ; preds = %4, %6
  %indvars.iv = phi i64 [ 0, %4 ], [ %indvars.iv.next, %6 ]
  %.02425 = phi ptr [ %0, %4 ], [ %19, %6 ]
  %7 = sub nuw nsw i64 31, %indvars.iv
  %8 = getelementptr inbounds nuw i16, ptr %2, i64 %7
  %9 = load i16, ptr %8, align 2, !tbaa !9
  %10 = zext i16 %9 to i64
  %11 = mul nuw i64 %10, 281479271743489
  store i64 %11, ptr %.02425, align 8, !tbaa !8
  %12 = getelementptr inbounds nuw i8, ptr %.02425, i64 8
  store i64 %11, ptr %12, align 8, !tbaa !8
  %13 = getelementptr inbounds nuw i8, ptr %.02425, i64 16
  store i64 %11, ptr %13, align 8, !tbaa !8
  %14 = getelementptr inbounds nuw i8, ptr %.02425, i64 24
  store i64 %11, ptr %14, align 8, !tbaa !8
  %15 = getelementptr inbounds nuw i8, ptr %.02425, i64 32
  store i64 %11, ptr %15, align 8, !tbaa !8
  %16 = getelementptr inbounds nuw i8, ptr %.02425, i64 40
  store i64 %11, ptr %16, align 8, !tbaa !8
  %17 = getelementptr inbounds nuw i8, ptr %.02425, i64 48
  store i64 %11, ptr %17, align 8, !tbaa !8
  %18 = getelementptr inbounds nuw i8, ptr %.02425, i64 56
  store i64 %11, ptr %18, align 8, !tbaa !8
  %19 = getelementptr inbounds nuw i16, ptr %.02425, i64 %5
  %indvars.iv.next = add nuw nsw i64 %indvars.iv, 1
  %exitcond.not = icmp eq i64 %indvars.iv.next, 32
  br i1 %exitcond.not, label %20, label %6, !llvm.loop !61

20:                                               ; preds = %6
  ret void
}